(lp0
(I129
S'zVGVouLq'
p1
(lp2
I190
aI234
aI215
aI187
atp3
a(I130
S'noVFj'
p4
(lp5
I207
aI227
aI193
aI242
aI243
aI242
aI178
aI253
aI142
aI227
aI138
aI209
aI190
aI149
aI255
aI234
aI238
aI166
aI213
aI241
aI217
aI245
aI254
aI206
aI228
aI232
aI227
aI172
aI242
aI231
aI223
aI253
aI202
aI197
aI244
aI181
atp6
a(I131
S'EpwUdtA'
p7
(lp8
I198
aI143
aI213
aI184
aI200
aI182
aI193
atp9
a(I132
S'KBEulcn'
p10
(lp11
I191
aI214
aI146
aI166
aI207
aI148
aI253
aI226
aI146
aI222
aI222
aI214
aI159
aI190
aI198
aI225
aI182
aI207
aI146
aI255
aI240
aI130
aI198
aI144
aI240
aI228
aI223
aI243
aI203
aI184
aI233
aI248
aI138
aI202
aI159
aI148
aI131
aI204
aI216
aI224
aI219
aI181
aI210
aI229
aI208
aI149
aI170
atp12
a(I133
S'yOBjJIquH'
p13
(lp14
I244
aI225
aI223
aI197
aI213
aI208
aI213
aI239
aI152
aI215
aI237
aI230
aI211
aI236
aI142
aI211
aI252
aI159
aI136
aI165
aI222
aI165
aI149
aI209
aI220
aI212
aI147
aI161
atp15
a(I134
S'JlOdgoPfSX'
p16
(lp17
I132
aI147
aI133
aI229
aI212
aI219
aI240
aI184
aI217
aI204
aI164
aI197
aI224
aI191
aI133
aI222
aI174
aI175
aI138
aI143
aI135
aI206
aI220
aI163
atp18
a(I135
S'HPUegbysZ'
p19
(lp20
I184
aI149
aI131
aI172
aI212
aI223
aI207
aI222
aI141
aI136
aI245
aI144
aI239
aI166
aI220
aI173
aI255
aI227
aI225
aI179
aI190
aI174
aI220
aI218
aI150
aI210
aI228
aI145
aI249
aI224
aI234
aI230
aI179
aI200
aI169
aI170
aI234
aI219
aI206
aI173
aI173
aI166
atp21
a(I136
S'dreKacylLX'
p22
(lp23
I201
aI229
aI160
aI138
aI178
aI228
aI215
aI173
aI209
aI201
aI249
aI153
aI182
aI144
aI211
aI129
aI180
aI211
aI211
aI216
aI191
aI237
aI188
aI139
aI176
aI177
aI225
aI246
atp24
a(I137
S'vocWBl'
p25
(lp26
I152
atp27
a(I138
S'TDZbzCMs'
p28
(lp29
I197
aI247
aI179
aI163
aI171
aI243
aI186
aI162
aI215
aI185
aI255
aI226
aI209
aI191
aI145
aI139
aI185
aI136
aI165
aI133
aI212
aI159
aI205
aI239
aI196
aI141
aI235
aI194
aI191
aI193
aI223
aI168
aI136
aI248
aI255
aI245
aI223
aI145
aI166
aI251
aI231
aI176
aI206
aI156
aI242
aI182
atp30
a(I139
S'TTSFpnF'
p31
(lp32
I236
aI192
aI147
aI200
aI162
aI220
aI181
aI169
aI234
aI132
aI140
aI232
aI166
aI201
aI142
aI239
aI216
aI153
aI176
atp33
a(I140
S'crndhss'
p34
(lp35
I244
aI227
aI191
aI225
aI174
aI141
aI185
aI236
aI221
aI139
aI146
aI236
aI215
aI145
aI156
aI144
aI225
aI242
aI188
aI230
aI136
aI187
aI219
atp36
a(I141
S'eGvMSR'
p37
(lp38
I198
aI140
aI200
aI169
aI202
aI238
aI209
aI216
aI218
aI159
aI185
aI143
aI203
aI223
aI184
aI201
aI133
aI247
aI202
aI160
aI199
aI193
aI183
aI215
aI223
aI202
aI240
aI253
aI203
aI159
aI159
aI206
aI199
aI206
aI151
atp39
a(I142
S'Xfmbe'
p40
(lp41
I242
aI201
aI239
aI205
aI153
aI186
aI192
aI156
aI244
aI252
aI181
aI145
aI158
aI248
aI218
aI245
aI220
aI130
aI247
aI201
aI177
aI140
aI158
aI224
aI244
aI193
aI149
aI178
aI253
aI245
atp42
a(I143
S'owCVMDu'
p43
(lp44
I166
aI145
aI175
aI153
aI160
aI185
aI145
aI228
aI145
aI215
aI209
aI249
aI239
aI240
aI132
aI181
aI209
aI158
aI213
aI138
aI135
aI165
aI251
aI173
aI171
aI179
aI215
aI162
aI243
aI179
aI150
aI186
aI161
aI199
aI248
aI140
aI225
aI178
aI201
aI245
aI146
aI131
aI142
atp45
a(I144
S'kQfKGiIpUZ'
p46
(lp47
I144
aI247
aI235
aI253
aI243
aI141
aI218
aI152
aI232
aI142
aI209
aI170
aI213
aI226
aI207
aI134
aI171
aI176
aI172
aI172
aI193
aI147
aI142
aI253
aI162
aI190
aI150
atp48
a(I145
S'WaDqUIx'
p49
(lp50
I203
aI194
aI142
aI153
aI159
aI154
aI148
aI166
aI236
aI142
aI168
aI153
aI231
aI176
aI175
aI174
aI190
aI190
aI210
aI162
aI213
aI178
aI188
aI198
aI241
aI208
atp51
a(I146
S'fpkRYm'
p52
(lp53
I178
aI153
aI223
aI144
aI164
aI150
aI161
aI252
aI233
aI196
aI163
aI231
aI229
aI156
aI166
aI235
aI213
aI223
aI247
aI138
aI139
aI140
aI231
aI232
aI205
aI150
aI213
aI183
aI231
aI235
aI179
aI160
aI208
aI204
aI136
aI196
aI145
aI161
aI149
aI254
atp54
a(I147
S'eHWcuPsS'
p55
(lp56
I231
aI130
aI227
aI236
aI189
aI200
aI176
aI223
aI250
aI196
aI145
aI225
aI191
aI198
aI235
atp57
a(I148
S'XVRcsf'
p58
(lp59
I212
aI223
aI135
aI220
aI159
atp60
a(I149
S'cniZL'
p61
(lp62
I209
aI148
aI172
aI236
aI188
aI175
aI216
aI166
aI195
aI251
aI225
aI247
aI153
aI245
aI217
aI223
aI227
aI234
aI231
aI183
aI238
aI129
aI237
aI160
aI251
aI202
aI216
aI215
aI243
aI234
aI145
aI239
aI253
aI198
aI161
aI163
aI207
aI191
aI189
aI157
aI206
aI231
aI237
atp63
a(I150
S'SWCeH'
p64
(lp65
I177
aI248
aI170
aI253
aI207
aI133
aI140
aI228
aI241
aI171
aI205
aI205
aI209
aI206
aI153
aI222
aI176
aI246
aI194
aI138
aI202
aI244
aI132
aI144
aI162
aI191
aI202
aI166
aI129
atp66
a(I151
S'kYXvZG'
p67
(lp68
I129
aI220
aI243
atp69
a(I152
S'RoEenw'
p70
(lp71
I228
aI131
aI177
aI166
aI199
aI195
aI169
aI140
aI171
aI214
aI247
aI196
aI152
aI254
aI174
aI207
aI188
aI178
aI141
aI182
aI195
aI136
aI167
aI201
aI248
aI139
aI170
aI154
aI198
aI157
aI231
aI183
aI241
aI163
aI134
aI230
aI175
aI151
aI130
aI181
aI220
atp72
a(I153
S'jXWQR'
p73
(lp74
I222
aI235
aI188
aI189
aI252
aI197
aI146
aI199
aI196
aI213
aI231
aI184
aI188
aI176
aI141
aI239
atp75
a(I154
S'uzIypSTQd'
p76
(lp77
I154
aI168
aI187
aI158
aI169
aI224
aI175
aI233
aI227
aI212
aI240
aI254
aI185
aI150
aI195
aI158
aI207
aI132
aI149
aI219
aI248
aI219
aI227
aI253
aI144
aI167
aI166
aI222
aI207
aI253
aI151
aI238
aI213
atp78
a(I155
S'HzKenKhr'
p79
(lp80
I162
aI182
aI146
aI171
aI230
aI167
aI133
aI196
aI234
aI155
aI244
aI209
aI150
aI164
aI144
aI129
aI237
aI129
aI164
aI191
aI230
aI194
aI194
aI143
aI244
aI165
aI164
aI248
aI170
aI252
aI133
aI170
aI223
aI164
aI131
aI243
aI194
aI190
aI192
aI214
aI177
aI237
aI253
aI249
aI136
aI145
aI245
aI190
aI164
aI206
atp81
a(I156
S'Qxvpj'
p82
(lp83
I216
aI141
aI210
aI210
aI182
aI180
aI184
aI159
aI240
aI160
aI250
aI165
aI205
aI142
aI183
aI203
aI169
atp84
a(I157
S'TryJJJ'
p85
(lp86
I164
aI196
aI251
atp87
a(I158
S'FGxG'
p88
(lp89
I154
aI134
aI239
aI138
aI206
aI190
aI208
aI245
aI246
aI229
aI229
aI209
aI204
aI201
aI253
aI209
aI152
aI145
aI155
aI132
aI178
aI207
aI180
aI129
aI172
atp90
a(I159
S'AwXAin'
p91
(lp92
I221
aI247
aI213
aI158
atp93
a(I160
S'eHvmrbnM'
p94
(lp95
I248
aI175
aI184
aI234
aI144
aI152
aI188
aI152
aI156
aI143
aI145
aI227
aI173
aI163
aI184
aI231
aI189
aI211
aI251
aI191
aI251
aI147
aI240
aI251
aI234
aI224
aI155
aI136
atp96
a(I161
S'LqRk'
p97
(lp98
I173
aI235
aI161
aI154
aI153
aI197
aI193
aI237
aI191
aI200
aI194
aI169
aI204
aI172
aI189
aI246
aI200
aI223
aI165
aI169
aI188
aI222
aI167
aI166
aI176
aI130
aI142
aI185
aI158
aI190
aI144
aI161
aI191
aI193
aI186
aI190
aI167
aI233
aI131
aI158
aI230
atp99
a(I162
S'APUVndrN'
p100
(lp101
I185
aI156
aI237
aI184
aI181
aI134
aI221
aI219
aI156
aI146
aI209
aI236
aI146
aI204
aI210
aI248
aI252
aI160
aI154
aI240
aI249
aI238
aI202
aI244
aI178
aI253
aI169
aI252
aI179
aI189
aI232
aI157
aI163
aI172
aI207
aI168
aI211
aI213
aI190
aI137
aI213
aI168
aI205
aI180
aI165
aI238
aI206
atp102
a(I163
S'aCEB'
p103
(lp104
I209
aI151
aI188
aI196
aI193
aI183
aI141
aI191
aI136
aI195
aI179
aI178
aI237
aI172
aI157
aI220
aI179
aI235
aI149
aI207
aI209
aI202
aI177
aI164
aI220
aI250
aI137
aI153
atp105
a(I164
S'NShvYKTGvT'
p106
(lp107
I191
aI195
aI247
aI248
aI198
aI198
aI208
aI152
aI210
aI245
aI195
aI164
aI132
aI217
aI196
aI210
aI220
aI253
aI175
aI155
aI156
aI230
aI239
aI212
aI133
aI195
aI199
aI235
aI154
aI252
aI142
aI168
aI129
aI169
aI169
aI240
aI162
aI193
aI205
aI222
aI199
aI193
aI152
aI163
aI204
aI153
aI175
atp108
a(I165
S'dNfUTJ'
p109
(lp110
I150
aI235
aI134
aI205
aI211
aI246
aI229
aI138
aI229
aI235
aI180
aI236
aI252
aI188
aI232
aI151
aI219
aI247
aI155
aI233
aI163
aI154
aI255
aI150
aI136
aI155
aI224
aI143
atp111
a(I166
S'bVipeqtl'
p112
(lp113
I163
aI230
aI167
aI168
aI233
aI242
aI155
aI229
aI205
aI237
aI133
aI167
aI251
aI160
aI229
aI170
aI164
aI168
aI244
aI184
aI227
aI139
aI135
aI169
aI169
aI206
aI149
aI173
aI230
aI153
aI195
aI254
aI216
aI175
aI183
aI182
aI183
aI188
aI247
aI204
aI227
aI190
aI158
aI217
aI197
aI153
aI205
atp114
a(I167
S'chYzFLAJpS'
p115
(lp116
I159
aI136
aI129
aI208
aI175
aI139
aI149
aI138
aI210
aI203
aI245
aI166
aI180
aI195
aI225
aI203
aI250
aI160
aI148
aI245
aI237
aI185
aI141
aI177
aI167
aI229
aI181
aI151
aI238
aI193
aI214
aI188
aI201
atp117
a(I168
S'WbnRMZCOTq'
p118
(lp119
I150
aI224
aI189
aI159
aI131
aI229
aI255
aI180
aI130
aI206
aI233
aI247
aI156
aI195
aI178
aI247
aI185
aI208
aI204
aI135
aI149
aI163
aI196
aI214
aI179
aI169
aI255
aI231
aI156
aI144
aI142
aI200
aI235
aI247
aI177
aI163
aI189
aI129
aI236
aI226
aI183
aI198
aI183
aI139
aI175
aI233
aI129
aI243
aI154
aI135
atp120
a(I169
S'eSsJ'
p121
(lp122
I210
aI244
aI194
aI137
aI174
aI207
aI224
aI221
aI206
aI163
aI210
aI179
aI150
aI197
aI161
aI213
aI209
aI220
aI167
aI135
aI160
aI149
aI243
aI152
atp123
a(I170
S'BteZvDVaM'
p124
(lp125
I140
aI237
aI162
aI254
aI233
aI177
aI254
aI195
aI201
aI246
aI145
aI219
aI131
aI224
aI146
aI251
aI223
aI249
aI141
aI207
aI232
aI163
aI132
aI161
atp126
a(I171
S'hMfKv'
p127
(lp128
I151
aI133
aI130
aI172
aI214
aI156
aI178
aI243
aI220
aI196
aI227
aI250
aI206
aI245
aI216
aI226
aI164
aI216
aI196
aI245
aI249
aI165
aI250
aI140
aI207
aI226
aI141
aI162
aI191
aI168
aI173
aI197
aI183
aI178
aI201
atp129
a(I172
S'JblYX'
p130
(lp131
I237
aI205
aI230
aI143
aI252
aI186
aI147
aI234
aI204
aI148
aI223
aI192
aI155
aI217
atp132
a(I173
S'dIAwJp'
p133
(lp134
I209
aI202
aI228
aI170
aI234
aI195
aI242
aI254
aI220
aI195
aI219
aI225
aI148
aI195
aI158
aI247
aI251
aI148
aI226
aI166
aI240
aI152
aI161
aI197
aI242
aI152
aI208
aI238
aI212
aI147
aI205
aI143
aI224
aI222
aI241
aI155
aI149
aI146
aI144
aI244
aI137
aI172
aI146
aI227
aI180
aI168
aI249
aI178
aI228
atp135
a(I174
S'StgFPNev'
p136
(lp137
I235
aI222
aI224
aI247
aI241
aI250
aI192
aI250
aI252
aI217
aI148
aI241
aI223
aI253
aI232
aI205
aI143
aI161
aI205
atp138
a(I175
S'VIjGqH'
p139
(lp140
I194
aI233
aI198
aI139
aI204
aI164
aI151
aI230
aI191
aI245
aI168
aI190
aI155
aI144
aI196
aI176
aI192
aI231
aI134
aI204
aI143
aI207
atp141
a(I176
S'rUaCWVIJs'
p142
(lp143
I143
aI231
aI146
aI161
aI161
aI225
aI234
aI151
aI241
atp144
a(I177
S'szFuhomdm'
p145
(lp146
I162
aI214
aI227
aI242
aI188
aI129
aI158
aI147
aI172
aI176
aI132
aI150
aI173
aI163
aI210
aI236
aI145
aI229
aI178
aI221
aI192
aI177
aI203
aI167
aI139
aI151
aI184
aI208
aI207
aI221
aI203
aI236
aI179
aI238
aI245
aI191
aI175
aI234
aI225
aI194
aI242
atp147
a(I178
S'SrfXCjny'
p148
(lp149
I246
aI145
aI163
aI174
aI178
aI223
aI201
aI255
aI198
aI182
aI190
aI166
aI141
aI139
aI179
aI239
aI164
aI223
aI167
aI132
aI235
aI254
aI201
aI174
aI183
aI135
aI201
aI199
aI171
aI218
aI190
aI236
aI216
aI188
aI139
aI190
aI157
aI253
aI142
aI233
aI218
atp150
a(I179
S'GVunz'
p151
(lp152
I211
aI158
aI239
aI235
aI224
aI198
aI156
aI135
aI227
aI199
aI188
aI131
aI232
aI240
aI195
aI187
aI224
aI207
atp153
a(I180
S'iwtAXAqz'
p154
(lp155
I197
aI217
aI148
aI248
aI213
aI254
aI251
aI145
aI203
aI149
aI143
aI224
aI207
aI221
aI138
aI227
aI168
aI229
aI195
aI218
aI239
aI200
aI220
aI162
aI223
aI216
aI200
atp156
a(I181
S'QlrLNHFljv'
p157
(lp158
I238
aI171
aI164
aI138
aI168
aI205
aI223
aI240
aI249
aI169
aI238
aI201
atp159
a(I182
S'JnlDv'
p160
(lp161
I223
aI160
aI140
aI184
aI219
aI153
aI237
aI239
aI216
aI251
aI176
aI241
aI168
aI188
aI228
aI201
aI138
aI132
aI156
aI220
aI148
aI204
aI253
aI245
aI180
aI208
aI238
aI180
aI217
aI165
aI218
aI196
aI206
aI224
aI250
aI132
aI238
aI164
aI237
aI136
atp162
a(I183
S'uIZgCKOcCn'
p163
(lp164
I196
aI227
aI129
aI173
aI142
aI168
aI176
aI140
aI160
aI132
aI222
aI179
aI172
aI158
aI153
aI246
aI164
aI163
atp165
a(I184
S'jwiKYcw'
p166
(lp167
I173
aI198
aI135
aI241
aI246
aI240
aI255
aI159
aI248
aI252
aI204
aI230
aI219
aI240
aI232
aI188
aI186
aI138
aI213
aI147
aI208
aI189
aI251
aI170
aI251
atp168
a(I185
S'NWisyLR'
p169
(lp170
I211
aI202
aI144
aI158
aI239
aI216
aI224
aI205
aI151
aI253
aI174
aI202
aI151
aI249
aI197
aI222
aI228
aI182
aI172
aI135
aI241
aI197
aI138
aI184
aI196
aI209
aI151
aI201
aI199
aI253
aI151
aI141
aI194
aI237
aI173
aI241
aI144
aI237
aI154
aI190
aI208
aI203
aI149
aI166
aI242
atp171
a(I186
S'dGXT'
p172
(lp173
I188
aI133
aI143
aI234
aI180
aI232
aI228
aI246
aI191
aI235
aI147
aI182
aI204
aI133
aI226
aI179
aI232
aI182
aI227
aI171
aI167
aI244
aI138
aI241
aI158
aI138
aI225
aI213
aI187
aI182
aI207
atp174
a(I187
S'uYvQcLGXiF'
p175
(lp176
I148
aI204
aI250
aI170
aI173
aI136
aI144
aI242
atp177
a(I188
S'IJZtPY'
p178
(lp179
I171
aI243
aI178
aI166
aI248
aI181
aI148
aI188
aI134
aI203
aI146
aI203
aI250
aI154
aI132
aI179
aI212
aI134
aI183
aI143
aI233
aI251
aI164
aI158
aI180
aI148
aI197
aI198
aI181
aI201
aI192
aI136
aI173
aI224
aI214
aI218
aI239
atp180
a(I189
S'pKiD'
p181
(lp182
I220
aI248
aI211
aI241
aI245
aI198
aI161
aI249
aI203
aI142
aI238
aI189
aI161
aI215
aI164
aI207
aI208
aI155
aI148
aI225
aI138
aI206
aI180
aI184
aI170
aI245
aI196
aI167
aI161
aI243
aI230
aI221
aI182
atp183
a(I190
S'ObAjSsxv'
p184
(lp185
I138
aI178
aI184
aI176
aI141
aI147
aI166
atp186
a(I191
S'RhmcEi'
p187
(lp188
I230
aI148
aI192
aI201
aI249
aI221
aI149
aI143
aI186
aI184
aI147
aI220
aI190
aI218
aI130
aI235
aI255
aI166
aI236
aI146
aI169
aI212
aI221
aI169
aI161
aI196
aI170
atp189
a(I192
S'WsihYWWjAQ'
p190
(lp191
I197
aI190
aI169
aI247
aI163
aI145
aI193
aI223
aI249
aI140
aI134
aI246
aI239
aI148
aI222
aI241
aI166
aI188
aI213
aI205
aI228
aI188
aI227
aI248
aI234
aI182
aI248
aI168
aI192
aI146
aI139
aI173
aI205
aI148
aI130
aI137
aI181
aI243
aI202
aI189
aI140
aI151
aI209
aI207
aI161
atp192
a(I193
S'UlWUKvNZPC'
p193
(lp194
I218
aI222
aI151
aI142
aI253
aI136
aI131
aI249
aI252
aI136
aI225
aI172
aI165
aI188
aI246
aI192
aI222
aI248
atp195
a(I194
S'wWQmY'
p196
(lp197
I202
aI164
aI132
aI159
aI243
aI229
aI147
aI249
aI135
aI148
aI197
aI174
aI139
aI164
aI223
aI132
atp198
a(I195
S'HIfTtkoIe'
p199
(lp200
I171
aI172
aI183
aI139
aI219
aI245
aI243
aI143
aI206
aI217
aI208
aI173
aI199
aI139
aI178
aI196
aI232
aI133
aI140
aI230
aI198
aI203
aI165
aI156
aI229
aI204
aI250
aI206
aI236
aI250
aI182
aI137
aI164
aI163
aI214
aI144
aI215
aI174
aI219
aI160
aI247
aI213
atp201
a(I196
S'YFqYnxy'
p202
(lp203
I207
aI182
aI164
aI132
aI192
aI222
aI222
aI139
aI252
aI196
aI213
aI206
aI164
aI184
aI197
aI162
atp204
a(I197
S'pGvmw'
p205
(lp206
I236
aI252
aI191
aI130
aI167
aI223
aI137
aI165
aI170
aI213
aI242
aI237
aI235
aI151
aI212
aI199
aI214
aI154
aI220
aI167
aI178
aI142
aI144
aI166
aI246
aI129
aI159
aI151
aI192
aI248
aI242
aI147
aI185
aI140
aI167
aI186
aI216
aI143
aI174
aI155
aI246
aI154
aI213
aI233
atp207
a(I198
S'zYrNrOG'
p208
(lp209
I138
aI173
aI246
aI206
aI214
aI148
aI221
aI191
aI243
aI203
aI222
aI231
aI251
aI219
aI167
aI237
aI235
aI189
aI212
aI184
aI160
aI214
aI132
aI140
aI158
aI243
aI174
aI160
aI173
aI133
aI240
aI188
aI169
aI217
aI169
aI246
aI174
aI245
aI155
aI226
aI146
aI199
aI220
aI169
atp210
a(I199
S'rmECk'
p211
(lp212
I152
aI181
aI233
aI211
aI152
aI129
aI220
aI212
aI197
aI241
aI190
aI201
aI218
aI154
aI147
aI130
aI204
aI251
aI143
aI236
atp213
a(I200
S'KmulyGqXn'
p214
(lp215
I246
aI164
aI216
aI164
aI233
aI245
aI253
aI226
aI137
aI162
aI137
aI198
aI158
aI206
aI147
aI139
aI165
aI154
aI255
aI152
aI189
aI182
aI224
aI144
aI189
aI231
aI244
aI169
aI141
aI157
aI244
aI164
aI179
aI182
aI199
aI133
aI130
atp216
a(I201
S'mLzzxj'
p217
(lp218
I143
aI134
aI178
aI163
aI164
aI184
aI158
aI169
aI219
aI214
aI136
aI176
aI143
aI249
aI225
aI200
aI185
aI150
aI249
atp219
a(I202
S'FslBcgYWcD'
p220
(lp221
I236
aI221
aI193
aI198
aI222
aI244
aI238
aI155
aI204
aI143
aI249
aI241
aI129
aI215
aI244
aI206
aI173
aI216
aI156
aI221
aI142
aI154
aI240
aI213
aI177
aI239
aI218
aI238
aI249
aI223
aI193
aI160
aI131
aI186
atp222
a(I203
S'ZFLWfMJk'
p223
(lp224
I149
aI185
aI163
aI213
aI161
aI254
aI210
aI147
aI220
aI186
aI220
aI175
aI152
aI150
aI208
atp225
a(I204
S'jhfuGYws'
p226
(lp227
I183
aI171
aI191
aI217
aI242
aI155
aI164
aI210
aI232
aI195
aI189
aI176
aI232
aI209
aI238
aI190
aI205
aI197
aI162
aI163
aI158
aI203
aI200
aI138
aI245
aI237
aI187
aI216
aI148
aI246
aI156
aI172
aI149
aI193
aI139
atp228
a(I205
S'JBqQ'
p229
(lp230
I173
aI227
aI134
aI207
aI153
aI253
aI142
aI143
aI173
aI191
aI152
aI188
aI175
aI176
aI227
aI245
aI248
aI165
aI182
aI146
aI202
aI138
aI174
aI208
aI167
atp231
a(I206
S'GDSStXD'
p232
(lp233
I161
aI135
aI144
aI216
aI229
aI185
aI193
aI191
aI221
aI201
aI133
aI141
aI147
aI148
aI171
aI136
aI164
aI155
aI209
aI140
aI216
aI232
aI193
aI153
aI142
aI211
aI203
aI164
aI152
aI204
aI153
atp234
a(I207
S'DZXERFuwL'
p235
(lp236
I148
aI249
aI188
aI231
aI230
aI229
aI156
aI184
aI161
aI202
aI156
aI229
aI177
aI183
aI217
aI218
aI201
aI203
aI195
aI153
aI251
aI214
aI230
aI247
aI226
aI165
aI150
aI221
aI204
aI219
aI239
aI144
aI193
aI165
aI253
aI236
aI204
aI185
aI197
aI183
aI144
atp237
a(I208
S'QLivtcCuCp'
p238
(lp239
I185
aI187
aI150
aI148
aI233
aI129
aI130
aI244
aI150
aI152
aI132
aI190
aI166
aI205
aI253
aI132
aI174
aI157
aI205
aI141
aI134
aI186
aI205
aI142
aI154
aI177
aI227
aI215
aI194
aI205
aI237
aI131
aI164
aI229
aI223
atp240
a(I209
S'lYfgqkax'
p241
(lp242
I255
aI240
aI161
aI169
aI169
aI200
aI177
aI149
aI211
aI191
aI208
aI140
aI231
aI209
aI208
aI136
aI221
aI219
aI145
aI231
aI254
aI150
aI222
aI206
aI166
aI137
aI195
aI197
aI177
aI231
aI153
aI146
aI205
aI131
aI144
aI200
aI229
aI153
aI153
aI142
atp243
a(I210
S'WaxkRnsKPr'
p244
(lp245
I210
aI166
aI186
aI187
aI201
aI149
aI188
aI158
aI147
aI194
aI255
aI154
aI252
aI140
aI238
aI131
aI226
aI166
aI161
aI182
aI135
aI139
aI151
aI182
aI235
aI246
aI140
aI170
aI225
aI144
aI218
aI131
aI153
aI233
aI169
aI250
aI193
aI189
aI206
atp246
a(I211
S'SKsfgpWJvV'
p247
(lp248
I157
aI144
aI206
aI184
aI135
aI201
aI131
aI215
aI179
aI130
aI180
aI206
aI207
aI182
aI221
aI131
aI233
aI140
aI248
aI214
aI203
aI178
aI180
aI239
aI170
aI213
atp249
a(I212
S'ovJn'
p250
(lp251
I188
aI206
aI221
atp252
a(I213
S'KvQg'
p253
(lp254
I142
aI235
aI186
aI190
aI145
aI239
aI198
aI138
aI137
atp255
a(I214
S'ohNNchiTnm'
p256
(lp257
I211
aI239
aI209
aI211
aI186
aI230
aI217
aI137
atp258
a(I215
S'LdZtfj'
p259
(lp260
I140
aI255
aI202
aI226
aI240
aI144
aI200
aI165
aI130
aI198
aI137
aI237
aI218
aI168
aI212
aI157
aI138
aI221
aI220
aI130
aI150
aI250
aI150
atp261
a(I216
S'GOMUK'
p262
(lp263
I243
aI245
aI180
aI237
aI234
aI236
aI251
aI247
aI146
aI156
aI221
aI135
aI155
aI154
aI195
aI177
aI199
aI189
aI184
aI169
aI228
aI157
aI229
aI234
aI131
atp264
a(I217
S'ROcLkjIQB'
p265
(lp266
I140
aI175
aI199
aI179
aI144
aI150
aI200
aI192
aI187
aI155
aI140
aI139
aI188
aI196
aI142
aI194
aI246
aI190
aI227
aI152
aI165
aI217
aI170
aI192
aI193
aI134
aI170
aI204
aI207
aI146
aI168
aI252
aI155
aI247
aI162
aI144
aI199
aI242
aI178
aI229
aI152
atp267
a(I218
S'ZmAhF'
p268
(lp269
I231
aI229
aI194
aI240
aI227
aI182
aI156
aI157
aI151
aI218
aI211
aI206
aI152
aI236
atp270
a(I219
S'CzfSXCB'
p271
(lp272
I246
aI142
aI154
aI160
aI183
aI224
aI214
aI184
aI158
aI138
aI151
aI177
aI188
aI174
aI174
aI245
aI150
aI153
aI179
aI224
aI141
aI197
aI149
aI210
aI216
aI221
aI154
aI205
aI174
aI221
aI209
aI159
aI151
aI227
aI239
aI207
aI206
aI162
aI196
aI169
atp273
a(I220
S'ZumpOKyM'
p274
(lp275
I212
aI193
aI249
aI155
aI206
aI178
aI253
aI202
aI199
aI232
aI248
aI249
aI229
aI131
aI250
aI228
aI208
aI196
aI251
aI181
aI199
aI215
aI137
aI159
aI173
aI206
atp276
a(I221
S'kMOzUuB'
p277
(lp278
I228
aI200
aI185
aI254
aI233
aI166
aI243
aI208
aI159
aI204
aI198
aI148
aI226
aI212
aI195
aI184
aI145
aI151
aI197
aI186
aI236
aI141
atp279
a(I222
S'EhzqEQjonD'
p280
(lp281
I155
aI130
atp282
a(I223
S'quGI'
p283
(lp284
I228
aI161
aI232
aI251
aI205
aI203
aI168
aI188
aI190
aI203
aI200
aI194
aI165
aI199
aI158
aI141
aI209
aI228
aI140
aI224
aI194
aI243
aI195
aI254
aI251
aI176
aI151
aI254
aI230
aI149
aI136
aI159
atp285
a(I224
S'twvismZ'
p286
(lp287
I133
aI135
aI161
aI169
aI137
aI195
aI171
aI231
aI136
aI226
aI163
aI142
aI232
aI164
aI129
aI238
aI216
aI149
aI231
aI203
aI229
aI150
aI202
aI129
aI153
aI154
aI175
aI252
aI133
aI132
atp288
a(I225
S'OLnhzodxds'
p289
(lp290
tp291
a(I226
S'dTxGJIpIs'
p292
(lp293
I145
aI134
aI177
aI200
aI155
aI202
aI145
aI144
aI180
aI180
aI175
aI131
aI216
atp294
a(I227
S'BQMe'
p295
(lp296
I151
aI167
aI157
aI210
aI183
aI191
aI187
aI247
aI133
aI165
aI224
aI166
aI222
aI202
aI144
aI195
aI237
aI196
aI173
aI166
aI138
aI147
aI221
aI227
aI198
aI207
aI136
aI204
aI174
atp297
a(I228
S'RUccfFox'
p298
(lp299
I190
aI132
aI222
aI202
aI174
aI188
aI209
aI160
aI220
aI197
aI190
aI130
aI178
aI245
aI194
aI214
aI155
aI201
aI209
aI199
aI202
aI134
aI148
aI202
aI249
aI251
aI206
aI174
aI241
atp300
a(I229
S'hZCogtYUBX'
p301
(lp302
I207
aI168
aI205
aI201
aI204
aI159
aI244
aI189
aI154
aI150
aI194
aI201
aI172
aI158
aI173
aI247
aI199
aI165
aI149
aI237
aI137
aI240
aI149
aI161
aI221
aI237
aI181
aI164
aI191
aI144
aI186
aI136
aI160
aI241
aI191
aI146
aI132
aI202
atp303
a(I230
S'FsKwFlaG'
p304
(lp305
I175
aI218
aI228
aI232
aI211
aI163
aI129
aI191
aI157
aI134
aI144
aI193
aI133
aI216
aI228
aI146
aI155
aI223
aI255
aI241
aI211
aI214
aI138
aI251
aI166
aI149
aI155
aI174
aI245
aI157
aI217
aI200
aI254
aI202
aI185
aI190
aI133
aI227
aI172
aI233
aI170
aI219
atp306
a(I231
S'ovgO'
p307
(lp308
I214
aI178
aI157
aI212
aI202
aI240
atp309
a(I232
S'SCxd'
p310
(lp311
I195
aI216
aI216
aI160
aI151
aI144
aI236
aI202
aI210
aI150
aI244
aI160
aI143
aI197
aI189
aI211
aI165
aI148
aI191
atp312
a(I233
S'UMhmRcNwiK'
p313
(lp314
I226
aI158
aI182
aI183
aI252
aI166
aI153
aI190
aI241
aI171
aI243
aI179
aI155
aI196
aI176
aI189
atp315
a(I234
S'RSUXmRrO'
p316
(lp317
I167
aI195
aI179
aI232
aI170
aI134
aI177
aI153
aI173
aI158
aI186
atp318
a(I235
S'TQkntfWKnD'
p319
(lp320
I156
aI159
aI159
aI143
aI151
aI179
aI150
aI169
aI183
aI202
aI224
aI171
aI213
aI146
aI233
aI129
aI151
aI253
aI146
aI154
aI137
atp321
a(I236
S'GnqIoINxO'
p322
(lp323
I252
aI190
aI135
aI245
aI220
aI207
aI159
aI206
aI185
aI132
aI242
aI131
aI134
aI220
aI194
aI142
aI253
aI217
aI203
aI169
aI254
aI188
aI228
aI130
aI212
aI224
aI244
aI236
aI254
aI253
aI217
aI221
aI241
aI192
aI251
aI131
aI197
aI213
aI145
aI172
atp324
a(I237
S'zKfDWN'
p325
(lp326
I168
aI179
aI148
aI142
aI148
aI204
aI177
aI132
aI137
aI152
aI241
aI218
aI254
aI213
aI161
aI182
aI193
aI205
aI148
aI140
aI215
aI224
aI224
aI192
aI235
aI217
aI206
aI144
aI209
aI187
aI183
aI199
aI146
aI192
aI171
aI231
aI145
aI130
aI198
aI211
aI152
aI161
aI234
aI218
aI148
aI184
atp327
a(I238
S'LyjARRD'
p328
(lp329
I227
aI161
aI167
aI219
aI180
aI238
aI229
aI146
aI243
aI205
aI218
aI248
aI171
aI161
aI239
aI194
aI130
aI184
aI160
aI244
aI235
aI198
aI220
aI177
aI247
aI141
aI154
aI150
aI162
aI253
aI221
atp330
a(I239
S'YWsi'
p331
(lp332
I166
aI157
aI190
aI245
aI220
atp333
a(I240
S'vFrGtT'
p334
(lp335
I195
aI182
aI182
aI221
aI219
aI224
aI130
aI136
aI231
aI179
aI161
aI141
aI208
aI155
aI238
aI135
aI254
aI166
aI242
aI221
aI133
aI156
aI133
aI187
aI198
atp336
a(I241
S'QSbQiyuCY'
p337
(lp338
tp339
a(I242
S'nNFNjsSAR'
p340
(lp341
I254
aI214
aI239
aI189
aI230
aI197
aI164
aI150
aI255
aI213
aI242
aI183
aI250
aI169
aI240
aI237
aI181
aI135
aI204
aI230
aI183
aI147
aI224
aI159
aI231
aI221
aI158
aI168
aI145
aI234
aI238
aI134
aI187
aI221
aI225
aI227
aI217
aI214
aI181
aI214
aI222
atp342
a(I243
S'EnXf'
p343
(lp344
I190
aI164
aI194
aI138
aI236
aI172
aI185
aI160
aI218
aI212
aI202
aI196
aI153
aI151
aI180
atp345
a(I244
S'ugoKS'
p346
(lp347
I202
aI221
aI157
aI140
aI167
aI167
aI132
aI185
aI136
aI159
aI217
aI232
aI234
aI167
aI166
aI138
aI166
aI183
aI190
aI195
aI155
aI251
aI175
atp348
a(I245
S'xZZljF'
p349
(lp350
I247
aI130
atp351
a(I246
S'BFJZIcbXTy'
p352
(lp353
tp354
a(I247
S'gHDhaelqmN'
p355
(lp356
I233
aI239
aI241
aI218
aI233
aI204
aI166
aI201
aI245
aI226
aI153
aI232
aI166
aI173
aI212
aI233
aI230
aI219
aI222
aI220
aI218
aI226
aI235
aI159
aI146
aI215
aI238
aI165
atp357
a(I248
S'YfvLYDWom'
p358
(lp359
I243
aI221
aI205
aI249
aI171
aI149
aI182
aI223
aI151
aI193
aI194
aI165
aI152
aI231
aI170
aI239
aI161
aI217
aI144
aI142
aI210
aI200
aI206
aI225
aI188
aI175
aI145
aI177
aI133
aI220
aI191
aI151
aI138
aI186
aI255
aI246
aI242
aI223
aI130
aI187
aI190
atp360
a(I249
S'lSmyfwS'
p361
(lp362
I176
aI168
aI236
aI163
aI223
aI255
aI255
aI164
aI176
aI177
aI166
aI146
aI219
aI209
aI144
aI252
aI157
aI132
aI234
aI136
aI155
aI204
aI200
aI213
aI189
aI160
aI174
aI197
aI138
aI214
aI241
aI132
aI211
aI227
aI207
aI153
aI161
aI185
aI176
aI247
atp363
a(I250
S'DSHUaYEXFb'
p364
(lp365
I139
aI176
aI234
aI213
aI170
aI219
aI148
aI187
aI162
aI160
aI144
aI205
aI226
aI217
aI207
aI203
aI233
aI206
aI178
aI225
aI169
aI244
atp366
a(I251
S'ySKVOXT'
p367
(lp368
I158
aI189
aI129
aI193
aI197
aI219
aI244
aI164
aI228
aI213
aI224
aI156
aI236
aI168
aI172
aI138
aI167
aI181
aI220
aI233
aI208
aI172
aI228
aI185
aI143
aI247
aI189
aI215
aI244
aI179
aI224
aI220
atp369
a(I252
S'JGcxcYKvq'
p370
(lp371
I244
aI235
aI235
aI247
aI232
aI213
aI210
aI140
aI179
aI190
atp372
a(I253
S'GCQy'
p373
(lp374
I245
aI197
aI145
aI186
aI129
aI135
aI250
aI191
aI199
aI239
aI154
aI242
aI135
aI217
aI220
aI171
aI231
aI192
aI196
aI187
aI223
aI212
aI217
aI219
aI138
aI129
aI136
aI168
aI180
aI146
aI191
atp375
a(I254
S'weKuxSMtK'
p376
(lp377
I238
aI194
aI195
aI162
aI247
aI174
aI136
aI164
aI242
aI148
aI193
aI184
aI241
aI210
aI223
aI240
aI249
aI222
aI232
aI169
aI184
aI145
aI172
aI249
aI253
aI212
aI244
aI132
aI206
aI153
aI215
aI236
aI222
aI146
aI202
aI135
aI169
aI250
aI197
aI205
aI229
aI230
aI205
aI190
aI166
aI245
aI148
aI132
aI197
aI155
atp378
a.